target datalayout = "e-m:e-p270:32:32-p271:32:32-p272:64:64-i64:64-i128:128-f80:128-n8:16:32:64-S128"
target triple = "x86_64-pc-linux-gnu"

%"class.arrow::compute::ScalarAggregateOptions" = type { %"class.arrow::compute::FunctionOptions", i8, i32 }
%"class.arrow::compute::FunctionOptions" = type { ptr, ptr }

@_ZN5arrow7compute8internal12_GLOBAL__N_127kScalarAggregateOptionsTypeE = internal global ptr null, align 8
@_ZTVN5arrow7compute15FunctionOptionsE = linkonce_odr unnamed_addr constant { [4 x ptr] } { [4 x ptr] [ptr null, ptr @_ZTIN5arrow7compute15FunctionOptionsE, ptr @_ZN5arrow4util18EqualityComparableINS_7compute15FunctionOptionsEED2Ev, ptr @_ZN5arrow7compute15FunctionOptionsD0Ev] }, comdat, align 8

; Function Attrs: mustprogress nounwind uwtable
define linkonce_odr void @_ZN5arrow7compute15FunctionOptionsC2EPKNS0_19FunctionOptionsTypeE(ptr noundef nonnull align 8 dereferenceable(16) %0, ptr noundef %1) unnamed_addr #0 comdat align 2 {
  %3 = alloca ptr, align 8
  %4 = alloca ptr, align 8
  store ptr %0, ptr %3, align 8, !tbaa !145
  store ptr %1, ptr %4, align 8, !tbaa !53
  %5 = load ptr, ptr %3, align 8
  store ptr getelementptr inbounds inrange(-16, 16) ({ [4 x ptr] }, ptr @_ZTVN5arrow7compute15FunctionOptionsE, i32 0, i32 0, i32 2), ptr %5, align 8, !tbaa !137
  %6 = getelementptr inbounds nuw %"class.arrow::compute::FunctionOptions", ptr %5, i32 0, i32 1
  %7 = load ptr, ptr %4, align 8, !tbaa !53
  store ptr %7, ptr %6, align 8, !tbaa !147
  ret void
}

; Function Attrs: mustprogress uwtable
define void @_ZN5arrow7compute22ScalarAggregateOptionsC2Ebj(ptr noundef nonnull align 8 dereferenceable(24) %0, i1 noundef zeroext %1, i32 noundef %2) unnamed_addr #2 align 2 {
  %4 = alloca ptr, align 8
  %5 = alloca i8, align 1
  %6 = alloca i32, align 4
  store ptr %0, ptr %4, align 8, !tbaa !133
  %7 = zext i1 %1 to i8
  store i8 %7, ptr %5, align 1, !tbaa !135
  store i32 %2, ptr %6, align 4, !tbaa !8
  %8 = load ptr, ptr %4, align 8
  %9 = load ptr, ptr @_ZN5arrow7compute8internal12_GLOBAL__N_127kScalarAggregateOptionsTypeE, align 8, !tbaa !53
  call void @_ZN5arrow7compute15FunctionOptionsC2EPKNS0_19FunctionOptionsTypeE(ptr noundef nonnull align 8 dereferenceable(16) %8, ptr noundef %9)
  store ptr getelementptr inbounds inrange(-16, 16) ({ [4 x ptr] }, ptr @_ZTVN5arrow7compute22ScalarAggregateOptionsE, i32 0, i32 0, i32 2), ptr %8, align 8, !tbaa !137
  %10 = getelementptr inbounds nuw %"class.arrow::compute::ScalarAggregateOptions", ptr %8, i32 0, i32 1
  %11 = load i8, ptr %5, align 1, !tbaa !135, !range !139, !noundef !140
  %12 = trunc i8 %11 to i1
  %13 = zext i1 %12 to i8
  store i8 %13, ptr %10, align 8, !tbaa !141
  %14 = getelementptr inbounds nuw %"class.arrow::compute::ScalarAggregateOptions", ptr %8, i32 0, i32 2
  %15 = load i32, ptr %6, align 4, !tbaa !8
  store i32 %15, ptr %14, align 4, !tbaa !144
  ret void
}