; Function Attrs: mustprogress nofree norecurse nosync nounwind willreturn memory(read, argmem: write, inaccessiblemem: none) uwtable
define void @_ZN5arrow7compute22ScalarAggregateOptionsC2Ebj(ptr noundef nonnull writeonly align 8 captures(none) dereferenceable(24) initializes((0, 17), (20, 24)) %0, i1 noundef zeroext %1, i32 noundef %2) unnamed_addr #2 align 2 {
  %4 = zext i1 %1 to i8
  %5 = load ptr, ptr @_ZN5arrow7compute8internal12_GLOBAL__N_127kScalarAggregateOptionsTypeE, align 8, !tbaa !32
  %6 = getelementptr inbounds nuw i8, ptr %0, i64 8
  store ptr %5, ptr %6, align 8, !tbaa !35
  store ptr getelementptr inbounds nuw inrange(-16, 16) (i8, ptr @_ZTVN5arrow7compute22ScalarAggregateOptionsE, i64 16), ptr %0, align 8, !tbaa !37
  %7 = getelementptr inbounds nuw i8, ptr %0, i64 16
  store i8 %4, ptr %7, align 8, !tbaa !39
  %8 = getelementptr inbounds nuw i8, ptr %0, i64 20
  store i32 %2, ptr %8, align 4, !tbaa !42
  ret void
}